target datalayout = "e-m:e-p270:32:32-p271:32:32-p272:64:64-i64:64-i128:128-f80:128-n8:16:32:64-S128"
target triple = "x86_64-pc-linux-gnu"

%struct.pending_spawn_req = type { i32, i32, i32, ptr, ptr }

@.str = private unnamed_addr constant [8 x i8] c"spawn.c\00", align 1
@__func__.spawn_psr_enqueue = private unnamed_addr constant [18 x i8] c"spawn_psr_enqueue\00", align 1
@psr_list = internal global ptr null, align 8

; Function Attrs: nounwind uwtable
define dso_local i32 @spawn_psr_enqueue(i32 noundef %0, i32 noundef %1, i32 noundef %2, ptr noundef %3) #0 {
  %5 = alloca i32, align 4
  %6 = alloca i32, align 4
  %7 = alloca i32, align 4
  %8 = alloca ptr, align 8
  %9 = alloca ptr, align 8
  store i32 %0, ptr %5, align 4
  store i32 %1, ptr %6, align 4
  store i32 %2, ptr %7, align 4
  store ptr %3, ptr %8, align 8
  call void @llvm.lifetime.start.p0(i64 8, ptr %9) #7
  %10 = call ptr @slurm_xcalloc(i64 noundef 1, i64 noundef 32, i1 noundef zeroext true, i1 noundef zeroext false, ptr noundef @.str, i32 noundef 418, ptr noundef @__func__.spawn_psr_enqueue)
  store ptr %10, ptr %9, align 8
  %11 = load i32, ptr %5, align 4
  %12 = load ptr, ptr %9, align 8
  %13 = getelementptr inbounds nuw %struct.pending_spawn_req, ptr %12, i32 0, i32 0
  store i32 %11, ptr %13, align 8
  %14 = load i32, ptr %6, align 4
  %15 = load ptr, ptr %9, align 8
  %16 = getelementptr inbounds nuw %struct.pending_spawn_req, ptr %15, i32 0, i32 1
  store i32 %14, ptr %16, align 4
  %17 = load i32, ptr %7, align 4
  %18 = load ptr, ptr %9, align 8
  %19 = getelementptr inbounds nuw %struct.pending_spawn_req, ptr %18, i32 0, i32 2
  store i32 %17, ptr %19, align 8
  %20 = load ptr, ptr %8, align 8
  %21 = call ptr @slurm_xstrdup(ptr noundef %20)
  %22 = load ptr, ptr %9, align 8
  %23 = getelementptr inbounds nuw %struct.pending_spawn_req, ptr %22, i32 0, i32 3
  store ptr %21, ptr %23, align 8
  %24 = load ptr, ptr @psr_list, align 8
  %25 = load ptr, ptr %9, align 8
  %26 = getelementptr inbounds nuw %struct.pending_spawn_req, ptr %25, i32 0, i32 4
  store ptr %24, ptr %26, align 8
  %27 = load ptr, ptr %9, align 8
  store ptr %27, ptr @psr_list, align 8
  call void @llvm.lifetime.end.p0(i64 8, ptr %9) #7
  ret i32 0
}