; Function Attrs: nounwind uwtable
define dso_local noundef i32 @spawn_psr_enqueue(i32 noundef %0, i32 noundef %1, i32 noundef %2, ptr noundef %3) local_unnamed_addr #0 {
  %5 = tail call ptr @slurm_xcalloc(i64 noundef 1, i64 noundef 32, i1 noundef zeroext true, i1 noundef zeroext false, ptr noundef nonnull @.str, i32 noundef 418, ptr noundef nonnull @__func__.spawn_psr_enqueue) #10
  store i32 %0, ptr %5, align 8
  %6 = getelementptr inbounds nuw i8, ptr %5, i64 4
  store i32 %1, ptr %6, align 4
  %7 = getelementptr inbounds nuw i8, ptr %5, i64 8
  store i32 %2, ptr %7, align 8
  %8 = tail call ptr @slurm_xstrdup(ptr noundef %3) #10
  %9 = getelementptr inbounds nuw i8, ptr %5, i64 16
  store ptr %8, ptr %9, align 8
  %10 = load ptr, ptr @psr_list, align 8
  %11 = getelementptr inbounds nuw i8, ptr %5, i64 24
  store ptr %10, ptr %11, align 8
  store ptr %5, ptr @psr_list, align 8
  ret i32 0
}